target datalayout = "e-m:e-p270:32:32-p271:32:32-p272:64:64-i64:64-i128:128-f80:128-n8:16:32:64-S128"
target triple = "x86_64-pc-linux-gnu"

%struct.JSON_Generator_StateStruct = type { i64, i64, i64, i64, i64, i64, i64, i64, i64, i8, i8, i8, i8 }

; Function Attrs: inlinehint nounwind sspstrong uwtable
define internal void @generate_json_symbol(ptr noundef %0, ptr noundef %1, ptr noundef %2, i64 noundef %3) #4 {
  %5 = alloca ptr, align 8
  %6 = alloca ptr, align 8
  %7 = alloca ptr, align 8
  %8 = alloca i64, align 8
  store ptr %0, ptr %5, align 8, !tbaa !57
  store ptr %1, ptr %6, align 8, !tbaa !58
  store ptr %2, ptr %7, align 8, !tbaa !12
  store i64 %3, ptr %8, align 8, !tbaa !6
  %9 = load ptr, ptr %7, align 8, !tbaa !12
  %10 = getelementptr inbounds nuw %struct.JSON_Generator_StateStruct, ptr %9, i32 0, i32 12
  %11 = load i8, ptr %10, align 1, !tbaa !29, !range !27, !noundef !28
  %12 = trunc i8 %11 to i1
  br i1 %12, label %13, label %19

13:                                               ; preds = %4
  %14 = load ptr, ptr %5, align 8, !tbaa !57
  %15 = load ptr, ptr %6, align 8, !tbaa !58
  %16 = load ptr, ptr %7, align 8, !tbaa !12
  %17 = load i64, ptr %8, align 8, !tbaa !6
  %18 = call i64 @rb_sym2str(i64 noundef %17)
  call void @generate_json_string(ptr noundef %14, ptr noundef %15, ptr noundef %16, i64 noundef %18)
  br label %24

19:                                               ; preds = %4
  %20 = load ptr, ptr %5, align 8, !tbaa !57
  %21 = load ptr, ptr %6, align 8, !tbaa !58
  %22 = load ptr, ptr %7, align 8, !tbaa !12
  %23 = load i64, ptr %8, align 8, !tbaa !6
  call void @generate_json_fallback(ptr noundef %20, ptr noundef %21, ptr noundef %22, i64 noundef %23)
  br label %24

24:                                               ; preds = %19, %13
  ret void
}