; Function Attrs: inlinehint nounwind sspstrong uwtable
define internal fastcc void @generate_json_symbol(ptr noundef %0, ptr noundef captures(none) %1, ptr noundef readonly captures(none) %2, i64 noundef range(i64 5, 4) %3) unnamed_addr #11 {
  %5 = getelementptr inbounds nuw i8, ptr %2, i64 75
  %6 = load i8, ptr %5, align 1, !tbaa !36, !range !34, !noundef !35
  %7 = trunc nuw i8 %6 to i1
  br i1 %7, label %8, label %10

8:                                                ; preds = %4
  %9 = tail call i64 @rb_sym2str(i64 noundef %3) #22
  tail call void @generate_json_string(ptr noundef %0, ptr poison, ptr noundef nonnull %2, i64 noundef %9)
  br label %11

10:                                               ; preds = %4
  tail call fastcc void @generate_json_fallback(ptr noundef %0, ptr noundef %1, ptr noundef nonnull %2, i64 noundef %3)
  br label %11

11:                                               ; preds = %10, %8
  ret void
}